target datalayout = "e-m:e-p270:32:32-p271:32:32-p272:64:64-i64:64-i128:128-f80:128-n8:16:32:64-S128"
target triple = "x86_64-pc-linux-gnu"

%struct.CallbackData = type { i8, i32 }

@.str.16 = private unnamed_addr constant [39 x i8] c"../openssl/test/bio_pw_callback_test.c\00", align 1
@weak_password = internal constant [14 x i8] c"weak_password\00", align 1
@callback_test = internal global i32 0, align 4
@.str.40 = private unnamed_addr constant [2 x i8] c"0\00", align 1
@.str.42 = private unnamed_addr constant [9 x i8] c"cb_magic\00", align 1
@.str.45 = private unnamed_addr constant [8 x i8] c"cb_data\00", align 1
@.str.46 = private unnamed_addr constant [15 x i8] c"cb_data->magic\00", align 1
@.str.47 = private unnamed_addr constant [4 x i8] c"buf\00", align 1
@.str.48 = private unnamed_addr constant [5 x i8] c"size\00", align 1
@.str.49 = private unnamed_addr constant [7 x i8] c"rwflag\00", align 1
@a0a_password = internal constant [18 x i8] c"aaaaaaaa\00aaaaaaaa\00", align 16
@a0b_password = internal constant [18 x i8] c"aaaaaaaa\00bbbbbbbb\00", align 16

; Function Attrs: nounwind uwtable
define internal i32 @callback_copy_password(ptr noundef %0, i32 noundef %1) #0 {
  %3 = alloca ptr, align 8
  %4 = alloca i32, align 4
  %5 = alloca i32, align 4
  store ptr %0, ptr %3, align 8, !tbaa !11
  store i32 %1, ptr %4, align 4, !tbaa !9
  call void @llvm.lifetime.start.p0(i64 4, ptr %5) #5
  store i32 -1, ptr %5, align 4, !tbaa !9
  %6 = load i32, ptr @callback_test, align 4, !tbaa !9
  switch i32 %6, label %31 [
    i32 0, label %31
    i32 1, label %7
    i32 2, label %8
    i32 3, label %12
    i32 4, label %14
    i32 5, label %18
    i32 6, label %22
    i32 7, label %27
  ]

7:                                                ; preds = %2
  store i32 0, ptr %5, align 4, !tbaa !9
  br label %31

8:                                                ; preds = %2
  store i32 13, ptr %5, align 4, !tbaa !9
  %9 = load ptr, ptr %3, align 8, !tbaa !11
  %10 = load i32, ptr %5, align 4, !tbaa !9
  %11 = sext i32 %10 to i64
  call void @llvm.memcpy.p0.p0.i64(ptr align 1 %9, ptr align 1 @weak_password, i64 %11, i1 false)
  br label %31

12:                                               ; preds = %2
  %13 = load ptr, ptr %3, align 8, !tbaa !11
  call void @llvm.memset.p0.i64(ptr align 1 %13, i8 0, i64 16, i1 false)
  store i32 16, ptr %5, align 4, !tbaa !9
  br label %31

14:                                               ; preds = %2
  store i32 17, ptr %5, align 4, !tbaa !9
  %15 = load ptr, ptr %3, align 8, !tbaa !11
  %16 = load i32, ptr %5, align 4, !tbaa !9
  %17 = sext i32 %16 to i64
  call void @llvm.memcpy.p0.p0.i64(ptr align 1 %15, ptr align 16 @a0a_password, i64 %17, i1 false)
  br label %31

18:                                               ; preds = %2
  store i32 17, ptr %5, align 4, !tbaa !9
  %19 = load ptr, ptr %3, align 8, !tbaa !11
  %20 = load i32, ptr %5, align 4, !tbaa !9
  %21 = sext i32 %20 to i64
  call void @llvm.memcpy.p0.p0.i64(ptr align 1 %19, ptr align 16 @a0b_password, i64 %21, i1 false)
  br label %31

22:                                               ; preds = %2
  %23 = load ptr, ptr %3, align 8, !tbaa !11
  %24 = load i32, ptr %4, align 4, !tbaa !9
  %25 = sext i32 %24 to i64
  call void @llvm.memset.p0.i64(ptr align 1 %23, i8 101, i64 %25, i1 false)
  %26 = load i32, ptr %4, align 4, !tbaa !9
  store i32 %26, ptr %5, align 4, !tbaa !9
  br label %31

27:                                               ; preds = %2
  %28 = load ptr, ptr %3, align 8, !tbaa !11
  %29 = load i32, ptr %4, align 4, !tbaa !9
  %30 = sext i32 %29 to i64
  call void @llvm.memset.p0.i64(ptr align 1 %28, i8 101, i64 %30, i1 false)
  store i32 1000000, ptr %5, align 4, !tbaa !9
  br label %31

31:                                               ; preds = %2, %27, %22, %18, %14, %12, %8, %7, %2
  %32 = load i32, ptr %5, align 4, !tbaa !9
  call void @llvm.lifetime.end.p0(i64 4, ptr %5) #5
  ret i32 %32
}

; Function Attrs: nounwind uwtable
define internal i32 @read_callback(ptr noundef %0, i32 noundef %1, i32 noundef %2, ptr noundef %3) #0 {
  %5 = alloca ptr, align 8
  %6 = alloca i32, align 4
  %7 = alloca i32, align 4
  %8 = alloca ptr, align 8
  %9 = alloca ptr, align 8
  %10 = alloca i32, align 4
  store ptr %0, ptr %5, align 8, !tbaa !11
  store i32 %1, ptr %6, align 4, !tbaa !9
  store i32 %2, ptr %7, align 4, !tbaa !9
  store ptr %3, ptr %8, align 8, !tbaa !15
  call void @llvm.lifetime.start.p0(i64 8, ptr %9) #5
  %11 = load ptr, ptr %8, align 8, !tbaa !15
  store ptr %11, ptr %9, align 8, !tbaa !30
  call void @llvm.lifetime.start.p0(i64 4, ptr %10) #5
  store i32 -1, ptr %10, align 4, !tbaa !9
  %12 = load ptr, ptr %9, align 8, !tbaa !30
  %13 = call i32 @test_ptr(ptr noundef @.str.16, i32 noundef 116, ptr noundef @.str.45, ptr noundef %12)
  %14 = icmp ne i32 %13, 0
  br i1 %14, label %16, label %15

15:                                               ; preds = %4
  br label %44

16:                                               ; preds = %4
  %17 = load ptr, ptr %9, align 8, !tbaa !30
  %18 = getelementptr inbounds nuw %struct.CallbackData, ptr %17, i32 0, i32 0
  %19 = load i8, ptr %18, align 4, !tbaa !24
  %20 = call i32 @test_char_eq(ptr noundef @.str.16, i32 noundef 118, ptr noundef @.str.46, ptr noundef @.str.42, i8 noundef signext %19, i8 noundef signext 112)
  %21 = icmp ne i32 %20, 0
  br i1 %21, label %23, label %22

22:                                               ; preds = %16
  br label %44

23:                                               ; preds = %16
  %24 = load ptr, ptr %5, align 8, !tbaa !11
  %25 = call i32 @test_ptr(ptr noundef @.str.16, i32 noundef 120, ptr noundef @.str.47, ptr noundef %24)
  %26 = icmp ne i32 %25, 0
  br i1 %26, label %28, label %27

27:                                               ; preds = %23
  br label %44

28:                                               ; preds = %23
  %29 = load i32, ptr %6, align 4, !tbaa !9
  %30 = call i32 @test_int_gt(ptr noundef @.str.16, i32 noundef 122, ptr noundef @.str.48, ptr noundef @.str.40, i32 noundef %29, i32 noundef 0)
  %31 = icmp ne i32 %30, 0
  br i1 %31, label %33, label %32

32:                                               ; preds = %28
  br label %44

33:                                               ; preds = %28
  %34 = load i32, ptr %7, align 4, !tbaa !9
  %35 = call i32 @test_int_eq(ptr noundef @.str.16, i32 noundef 124, ptr noundef @.str.49, ptr noundef @.str.40, i32 noundef %34, i32 noundef 0)
  %36 = icmp ne i32 %35, 0
  br i1 %36, label %38, label %37

37:                                               ; preds = %33
  br label %44

38:                                               ; preds = %33
  %39 = load ptr, ptr %5, align 8, !tbaa !11
  %40 = load i32, ptr %6, align 4, !tbaa !9
  %41 = call i32 @callback_copy_password(ptr noundef %39, i32 noundef %40)
  store i32 %41, ptr %10, align 4, !tbaa !9
  %42 = load ptr, ptr %9, align 8, !tbaa !30
  %43 = getelementptr inbounds nuw %struct.CallbackData, ptr %42, i32 0, i32 1
  store i32 1, ptr %43, align 4, !tbaa !26
  br label %44

44:                                               ; preds = %38, %37, %32, %27, %22, %15
  %45 = load i32, ptr %10, align 4, !tbaa !9
  call void @llvm.lifetime.end.p0(i64 4, ptr %10) #5
  call void @llvm.lifetime.end.p0(i64 8, ptr %9) #5
  ret i32 %45
}