; Function Attrs: nounwind uwtable
define internal noundef i32 @read_callback(ptr noundef %0, i32 noundef %1, i32 noundef %2, ptr noundef %3) #1 {
  %5 = tail call i32 @test_ptr(ptr noundef nonnull @.str.16, i32 noundef 116, ptr noundef nonnull @.str.45, ptr noundef %3) #7
  %.not = icmp eq i32 %5, 0
  br i1 %.not, label %27, label %6

6:                                                ; preds = %4
  %7 = load i8, ptr %3, align 4, !tbaa !17
  %8 = tail call i32 @test_char_eq(ptr noundef nonnull @.str.16, i32 noundef 118, ptr noundef nonnull @.str.46, ptr noundef nonnull @.str.42, i8 noundef signext %7, i8 noundef signext 112) #7
  %.not9 = icmp eq i32 %8, 0
  br i1 %.not9, label %27, label %9

9:                                                ; preds = %6
  %10 = tail call i32 @test_ptr(ptr noundef nonnull @.str.16, i32 noundef 120, ptr noundef nonnull @.str.47, ptr noundef %0) #7
  %.not10 = icmp eq i32 %10, 0
  br i1 %.not10, label %27, label %11

11:                                               ; preds = %9
  %12 = tail call i32 @test_int_gt(ptr noundef nonnull @.str.16, i32 noundef 122, ptr noundef nonnull @.str.48, ptr noundef nonnull @.str.40, i32 noundef %1, i32 noundef 0) #7
  %.not11 = icmp eq i32 %12, 0
  br i1 %.not11, label %27, label %13

13:                                               ; preds = %11
  %14 = tail call i32 @test_int_eq(ptr noundef nonnull @.str.16, i32 noundef 124, ptr noundef nonnull @.str.49, ptr noundef nonnull @.str.40, i32 noundef %2, i32 noundef 0) #7
  %.not12 = icmp eq i32 %14, 0
  br i1 %.not12, label %27, label %15

15:                                               ; preds = %13
  %16 = load i32, ptr @callback_test, align 4, !tbaa !13
  switch i32 %16, label %callback_copy_password.exit [
    i32 7, label %24
    i32 1, label %17
    i32 2, label %18
    i32 3, label %19
    i32 4, label %20
    i32 5, label %21
    i32 6, label %22
  ]

17:                                               ; preds = %15
  br label %callback_copy_password.exit

18:                                               ; preds = %15
  tail call void @llvm.memcpy.p0.p0.i64(ptr noundef nonnull align 1 dereferenceable(13) %0, ptr noundef nonnull align 1 dereferenceable(13) @weak_password, i64 13, i1 false)
  br label %callback_copy_password.exit

19:                                               ; preds = %15
  tail call void @llvm.memset.p0.i64(ptr noundef nonnull align 1 dereferenceable(16) %0, i8 0, i64 16, i1 false)
  br label %callback_copy_password.exit

20:                                               ; preds = %15
  tail call void @llvm.memcpy.p0.p0.i64(ptr noundef nonnull align 1 dereferenceable(17) %0, ptr noundef nonnull align 16 dereferenceable(17) @a0a_password, i64 17, i1 false)
  br label %callback_copy_password.exit

21:                                               ; preds = %15
  tail call void @llvm.memcpy.p0.p0.i64(ptr noundef nonnull align 1 dereferenceable(17) %0, ptr noundef nonnull align 16 dereferenceable(17) @a0b_password, i64 17, i1 false)
  br label %callback_copy_password.exit

22:                                               ; preds = %15
  %23 = sext i32 %1 to i64
  tail call void @llvm.memset.p0.i64(ptr align 1 %0, i8 101, i64 %23, i1 false)
  br label %callback_copy_password.exit

24:                                               ; preds = %15
  %25 = sext i32 %1 to i64
  tail call void @llvm.memset.p0.i64(ptr align 1 %0, i8 101, i64 %25, i1 false)
  br label %callback_copy_password.exit

callback_copy_password.exit:                      ; preds = %15, %17, %18, %19, %20, %21, %22, %24
  %.0.i = phi i32 [ -1, %15 ], [ %1, %22 ], [ 17, %21 ], [ 17, %20 ], [ 16, %19 ], [ 13, %18 ], [ 0, %17 ], [ 1000000, %24 ]
  %26 = getelementptr inbounds nuw i8, ptr %3, i64 4
  store i32 1, ptr %26, align 4, !tbaa !19
  br label %27

27:                                               ; preds = %13, %11, %9, %6, %4, %callback_copy_password.exit
  %.0 = phi i32 [ %.0.i, %callback_copy_password.exit ], [ -1, %13 ], [ -1, %11 ], [ -1, %9 ], [ -1, %6 ], [ -1, %4 ]
  ret i32 %.0
}